#include <math.h>
#include <stdio.h>
#include <stdlib.h>
#include <string.h>

int main()
{
	char a[10000],b[10000];
	int l1,l2,l,i,j,t[10000],z;
	scanf("%s",a);
	scanf("%s",b);
    l1=strlen(a);
	l2=strlen(b);
	l=0;
	z=0;
	if (l1==l2) l=l1;
	else{
		printf("NO\n");
		z=1;
	}
	for (i=0;i<l;i++){
		t[i]=0;
		for (j=0;j<l;j++)
			if (a[i]==b[j]){
				t[i]=1;
				b[j]=0;
				break;
				
			}
			if (t[i]==0){
                z=1;
				printf("NO\n");
				break;
			}
	}
    if (z!=1) printf("YES\n");
	return 0;
}